; Function Attrs: mustprogress uwtable
define void @_ZN4cvc56parser10SymManager14Implementation15resetAssertionsEv(ptr noundef nonnull align 8 dereferenceable(584) %this) local_unnamed_addr #3 align 2 {
cond.end:
  %d_context = getelementptr inbounds i8, ptr %this, i64 8
  %call57 = tail call noundef i32 @_ZNK4cvc57context7Context8getLevelEv(ptr noundef nonnull align 8 dereferenceable(48) %d_context)
  %cmp8 = icmp ugt i32 %call57, 1
  br i1 %cmp8, label %while.body, label %while.end

while.body:                                       ; preds = %cond.end, %while.body
  tail call void @_ZN4cvc57context7Context3popEv(ptr noundef nonnull align 8 dereferenceable(48) %d_context)
  %call5 = tail call noundef i32 @_ZNK4cvc57context7Context8getLevelEv(ptr noundef nonnull align 8 dereferenceable(48) %d_context)
  %cmp = icmp ugt i32 %call5, 1
  br i1 %cmp, label %while.body, label %while.end, !llvm.loop !30

while.end:                                        ; preds = %while.body, %cond.end
  ret void
}